; Function Attrs: mustprogress nounwind uwtable
define void @_ZNK8IOPlugin20warningMessageStringEv(ptr dead_on_unwind noalias nocapture writable writeonly sret(%class.QString) align 8 %0, ptr nocapture noundef nonnull align 8 dereferenceable(16) %1) local_unnamed_addr #0 align 2 personality ptr @__gxx_personality_v0 {
  %3 = getelementptr inbounds i8, ptr %1, i64 8
  %4 = load ptr, ptr %3, align 8
  store ptr %4, ptr %0, align 8
  %5 = load atomic i32, ptr %4 monotonic, align 4
  %6 = add i32 %5, -1
  %or.cond.not.i.i = icmp ult i32 %6, -2
  br i1 %or.cond.not.i.i, label %7, label %_ZN7QStringC2ERKS_.exit

7:                                                ; preds = %2
  %8 = atomicrmw add ptr %4, i32 1 seq_cst, align 4
  %.pre = load ptr, ptr %3, align 8
  br label %_ZN7QStringC2ERKS_.exit

_ZN7QStringC2ERKS_.exit:                          ; preds = %2, %7
  %9 = phi ptr [ %4, %2 ], [ %.pre, %7 ]
  %10 = icmp eq ptr %9, @_ZN10QArrayData11shared_nullE
  br i1 %10, label %_ZN7QString5clearEv.exit, label %11

11:                                               ; preds = %_ZN7QStringC2ERKS_.exit
  store ptr @_ZN10QArrayData11shared_nullE, ptr %3, align 8
  %12 = load atomic i32, ptr %9 monotonic, align 4
  switch i32 %12, label %_ZN9QtPrivate8RefCount5derefEv.exit.i.i [
    i32 0, label %_ZN9QtPrivate8RefCount5derefEv.exit.thread2.i.i
    i32 -1, label %_ZN7QString5clearEv.exit
  ]

_ZN9QtPrivate8RefCount5derefEv.exit.i.i:          ; preds = %11
  %13 = atomicrmw sub ptr %9, i32 1 seq_cst, align 4
  %.not.i.i = icmp eq i32 %13, 1
  br i1 %.not.i.i, label %_ZN9QtPrivate8RefCount5derefEv.exit.thread2.i.i, label %_ZN7QString5clearEv.exit

_ZN9QtPrivate8RefCount5derefEv.exit.thread2.i.i:  ; preds = %_ZN9QtPrivate8RefCount5derefEv.exit.i.i, %11
  tail call void @_ZN10QArrayData10deallocateEPS_mm(ptr noundef nonnull %9, i64 noundef 2, i64 noundef 8) #23
  br label %_ZN7QString5clearEv.exit

_ZN7QString5clearEv.exit:                         ; preds = %_ZN7QStringC2ERKS_.exit, %11, %_ZN9QtPrivate8RefCount5derefEv.exit.i.i, %_ZN9QtPrivate8RefCount5derefEv.exit.thread2.i.i
  ret void
}